target datalayout = "e-m:e-p270:32:32-p271:32:32-p272:64:64-i64:64-i128:128-f80:128-n8:16:32:64-S128"
target triple = "x86_64-pc-linux-gnu"

%"class.std::basic_ostream" = type { ptr, %"class.std::basic_ios" }
%"class.std::basic_ios" = type { %"class.std::ios_base", ptr, i8, i8, ptr, ptr, ptr, ptr }
%"class.std::ios_base" = type { ptr, i64, i64, i32, i32, i32, ptr, %"struct.std::ios_base::_Words", [8 x %"struct.std::ios_base::_Words"], i32, ptr, %"class.std::locale" }
%"struct.std::ios_base::_Words" = type { ptr, i64 }
%"class.std::locale" = type { ptr }
%"class.entt::basic_sparse_set" = type { ptr, %"class.std::vector.30", %"class.std::vector.35", ptr, i8, i64 }
%"class.std::vector.30" = type { %"struct.std::_Vector_base.31" }
%"struct.std::_Vector_base.31" = type { %"struct.std::_Vector_base<entt::entity *, std::allocator<entt::entity *>>::_Vector_impl" }
%"struct.std::_Vector_base<entt::entity *, std::allocator<entt::entity *>>::_Vector_impl" = type { %"struct.std::_Vector_base<entt::entity *, std::allocator<entt::entity *>>::_Vector_impl_data" }
%"struct.std::_Vector_base<entt::entity *, std::allocator<entt::entity *>>::_Vector_impl_data" = type { ptr, ptr, ptr }
%"class.std::vector.35" = type { %"struct.std::_Vector_base.36" }
%"struct.std::_Vector_base.36" = type { %"struct.std::_Vector_base<entt::entity, std::allocator<entt::entity>>::_Vector_impl" }
%"struct.std::_Vector_base<entt::entity, std::allocator<entt::entity>>::_Vector_impl" = type { %"struct.std::_Vector_base<entt::entity, std::allocator<entt::entity>>::_Vector_impl_data" }
%"struct.std::_Vector_base<entt::entity, std::allocator<entt::entity>>::_Vector_impl_data" = type { ptr, ptr, ptr }
%"class.entt::basic_registry" = type { %"class.entt::internal::registry_context", %"class.entt::dense_map.12", %"class.entt::dense_map.21", %"class.entt::basic_sigh_mixin" }
%"class.entt::internal::registry_context" = type { %"class.entt::dense_map" }
%"class.entt::dense_map" = type <{ %"class.entt::compressed_pair", %"class.entt::compressed_pair.4", float, [4 x i8] }>
%"class.entt::compressed_pair" = type { %"struct.entt::internal::compressed_pair_element" }
%"struct.entt::internal::compressed_pair_element" = type { %"class.std::vector" }
%"class.std::vector" = type { %"struct.std::_Vector_base" }
%"struct.std::_Vector_base" = type { %"struct.std::_Vector_base<unsigned long, std::allocator<unsigned long>>::_Vector_impl" }
%"struct.std::_Vector_base<unsigned long, std::allocator<unsigned long>>::_Vector_impl" = type { %"struct.std::_Vector_base<unsigned long, std::allocator<unsigned long>>::_Vector_impl_data" }
%"struct.std::_Vector_base<unsigned long, std::allocator<unsigned long>>::_Vector_impl_data" = type { ptr, ptr, ptr }
%"class.entt::compressed_pair.4" = type { %"struct.entt::internal::compressed_pair_element.5" }
%"struct.entt::internal::compressed_pair_element.5" = type { %"class.std::vector.6" }
%"class.std::vector.6" = type { %"struct.std::_Vector_base.7" }
%"struct.std::_Vector_base.7" = type { %"struct.std::_Vector_base<entt::internal::dense_map_node<unsigned int, entt::basic_any<0>>, std::allocator<entt::internal::dense_map_node<unsigned int, entt::basic_any<0>>>>::_Vector_impl" }
%"struct.std::_Vector_base<entt::internal::dense_map_node<unsigned int, entt::basic_any<0>>, std::allocator<entt::internal::dense_map_node<unsigned int, entt::basic_any<0>>>>::_Vector_impl" = type { %"struct.std::_Vector_base<entt::internal::dense_map_node<unsigned int, entt::basic_any<0>>, std::allocator<entt::internal::dense_map_node<unsigned int, entt::basic_any<0>>>>::_Vector_impl_data" }
%"struct.std::_Vector_base<entt::internal::dense_map_node<unsigned int, entt::basic_any<0>>, std::allocator<entt::internal::dense_map_node<unsigned int, entt::basic_any<0>>>>::_Vector_impl_data" = type { ptr, ptr, ptr }
%"class.entt::dense_map.12" = type <{ %"class.entt::compressed_pair", %"class.entt::compressed_pair.13", float, [4 x i8] }>
%"class.entt::compressed_pair.13" = type { %"struct.entt::internal::compressed_pair_element.14" }
%"struct.entt::internal::compressed_pair_element.14" = type { %"class.std::vector.15" }
%"class.std::vector.15" = type { %"struct.std::_Vector_base.16" }
%"struct.std::_Vector_base.16" = type { %"struct.std::_Vector_base<entt::internal::dense_map_node<unsigned int, std::shared_ptr<entt::basic_sparse_set<>>>, std::allocator<entt::internal::dense_map_node<unsigned int, std::shared_ptr<entt::basic_sparse_set<>>>>>::_Vector_impl" }
%"struct.std::_Vector_base<entt::internal::dense_map_node<unsigned int, std::shared_ptr<entt::basic_sparse_set<>>>, std::allocator<entt::internal::dense_map_node<unsigned int, std::shared_ptr<entt::basic_sparse_set<>>>>>::_Vector_impl" = type { %"struct.std::_Vector_base<entt::internal::dense_map_node<unsigned int, std::shared_ptr<entt::basic_sparse_set<>>>, std::allocator<entt::internal::dense_map_node<unsigned int, std::shared_ptr<entt::basic_sparse_set<>>>>>::_Vector_impl_data" }
%"struct.std::_Vector_base<entt::internal::dense_map_node<unsigned int, std::shared_ptr<entt::basic_sparse_set<>>>, std::allocator<entt::internal::dense_map_node<unsigned int, std::shared_ptr<entt::basic_sparse_set<>>>>>::_Vector_impl_data" = type { ptr, ptr, ptr }
%"class.entt::dense_map.21" = type <{ %"class.entt::compressed_pair", %"class.entt::compressed_pair.22", float, [4 x i8] }>
%"class.entt::compressed_pair.22" = type { %"struct.entt::internal::compressed_pair_element.23" }
%"struct.entt::internal::compressed_pair_element.23" = type { %"class.std::vector.24" }
%"class.std::vector.24" = type { %"struct.std::_Vector_base.25" }
%"struct.std::_Vector_base.25" = type { %"struct.std::_Vector_base<entt::internal::dense_map_node<unsigned int, std::shared_ptr<entt::internal::group_descriptor>>, std::allocator<entt::internal::dense_map_node<unsigned int, std::shared_ptr<entt::internal::group_descriptor>>>>::_Vector_impl" }
%"struct.std::_Vector_base<entt::internal::dense_map_node<unsigned int, std::shared_ptr<entt::internal::group_descriptor>>, std::allocator<entt::internal::dense_map_node<unsigned int, std::shared_ptr<entt::internal::group_descriptor>>>>::_Vector_impl" = type { %"struct.std::_Vector_base<entt::internal::dense_map_node<unsigned int, std::shared_ptr<entt::internal::group_descriptor>>, std::allocator<entt::internal::dense_map_node<unsigned int, std::shared_ptr<entt::internal::group_descriptor>>>>::_Vector_impl_data" }
%"struct.std::_Vector_base<entt::internal::dense_map_node<unsigned int, std::shared_ptr<entt::internal::group_descriptor>>, std::allocator<entt::internal::dense_map_node<unsigned int, std::shared_ptr<entt::internal::group_descriptor>>>>::_Vector_impl_data" = type { ptr, ptr, ptr }
%"class.entt::basic_sigh_mixin" = type { %"class.entt::basic_storage", ptr, %"class.entt::sigh", %"class.entt::sigh", %"class.entt::sigh" }
%"class.entt::basic_storage" = type { %"class.entt::basic_sparse_set", i64 }
%"class.entt::sigh" = type { %"class.std::vector.40" }
%"class.std::vector.40" = type { %"struct.std::_Vector_base.41" }
%"struct.std::_Vector_base.41" = type { %"struct.std::_Vector_base<entt::delegate<void (entt::basic_registry<> &, entt::entity)>, std::allocator<entt::delegate<void (entt::basic_registry<> &, entt::entity)>>>::_Vector_impl" }
%"struct.std::_Vector_base<entt::delegate<void (entt::basic_registry<> &, entt::entity)>, std::allocator<entt::delegate<void (entt::basic_registry<> &, entt::entity)>>>::_Vector_impl" = type { %"struct.std::_Vector_base<entt::delegate<void (entt::basic_registry<> &, entt::entity)>, std::allocator<entt::delegate<void (entt::basic_registry<> &, entt::entity)>>>::_Vector_impl_data" }
%"struct.std::_Vector_base<entt::delegate<void (entt::basic_registry<> &, entt::entity)>, std::allocator<entt::delegate<void (entt::basic_registry<> &, entt::entity)>>>::_Vector_impl_data" = type { ptr, ptr, ptr }
%class.anon = type { ptr }
%"class.std::allocator.37" = type { i8 }
%struct.timer = type { %"class.std::chrono::time_point" }
%"class.std::chrono::time_point" = type { %"class.std::chrono::duration" }
%"class.std::chrono::duration" = type { i64 }

@_ZSt4cout = external global %"class.std::basic_ostream", align 8
@.str.4 = private unnamed_addr constant [26 x i8] c"Creating 1000000 entities\00", align 1

; Function Attrs: mustprogress uwtable
define linkonce_odr hidden noundef i32 @_ZN4entt14basic_registryINS_6entityESaIS1_EE6createEv(ptr noundef nonnull align 8 dereferenceable(336) %0) #6 comdat align 2 {
  %2 = alloca ptr, align 8
  store ptr %0, ptr %2, align 8, !tbaa !33
  %3 = load ptr, ptr %2, align 8
  %4 = getelementptr inbounds nuw %"class.entt::basic_registry", ptr %3, i32 0, i32 3
  %5 = call noundef i32 @_ZN4entt16basic_sigh_mixinINS_13basic_storageINS_6entityES2_SaIS2_EvEENS_14basic_registryIS2_S3_EEE8generateEv(ptr noundef nonnull align 8 dereferenceable(168) %4)
  ret i32 %5
}

; Function Attrs: inlinehint mustprogress nounwind uwtable
define linkonce_odr dso_local noundef i32 @_ZStorSt12_Ios_IostateS_(i32 noundef %0, i32 noundef %1) #10 comdat {
  %3 = alloca i32, align 4
  %4 = alloca i32, align 4
  store i32 %0, ptr %3, align 4, !tbaa !1465
  store i32 %1, ptr %4, align 4, !tbaa !1465
  %5 = load i32, ptr %3, align 4, !tbaa !1465
  %6 = load i32, ptr %4, align 4, !tbaa !1465
  %7 = or i32 %5, %6
  ret i32 %7
}

; Function Attrs: mustprogress nounwind uwtable
define available_externally noundef i32 @_ZNKSt9basic_iosIcSt11char_traitsIcEE7rdstateEv(ptr noundef nonnull align 8 dereferenceable(264) %0) #5 align 2 {
  %2 = alloca ptr, align 8
  store ptr %0, ptr %2, align 8, !tbaa !1463
  %3 = load ptr, ptr %2, align 8
  %4 = getelementptr inbounds nuw %"class.std::ios_base", ptr %3, i32 0, i32 5
  %5 = load i32, ptr %4, align 8, !tbaa !1467
  ret i32 %5
}

; Function Attrs: mustprogress nounwind uwtable
define linkonce_odr hidden void @_ZNSt15__new_allocatorIN4entt6entityEEC2Ev(ptr noundef nonnull align 1 dereferenceable(1) %0) unnamed_addr #5 comdat align 2 {
  %2 = alloca ptr, align 8
  store ptr %0, ptr %2, align 8, !tbaa !494
  ret void
}

; Function Attrs: inlinehint mustprogress uwtable
define internal void @"_ZZN21Benchmark_Create_Test8TestBodyEvENK3$_0clEv"(ptr noundef nonnull align 8 dereferenceable(8) %0) #8 align 2 {
  %2 = alloca ptr, align 8
  %3 = alloca i64, align 8
  store ptr %0, ptr %2, align 8, !tbaa !24
  %4 = load ptr, ptr %2, align 8
  call void @llvm.lifetime.start.p0(i64 8, ptr %3) #3
  store i64 0, ptr %3, align 8, !tbaa !45
  br label %5

5:                                                ; preds = %13, %1
  %6 = load i64, ptr %3, align 8, !tbaa !45
  %7 = icmp ult i64 %6, 1000000
  br i1 %7, label %9, label %8

8:                                                ; preds = %5
  call void @llvm.lifetime.end.p0(i64 8, ptr %3) #3
  br label %16

9:                                                ; preds = %5
  %10 = getelementptr inbounds nuw %class.anon, ptr %4, i32 0, i32 0
  %11 = load ptr, ptr %10, align 8, !tbaa !1519
  %12 = call noundef i32 @_ZN4entt14basic_registryINS_6entityESaIS1_EE6createEv(ptr noundef nonnull align 8 dereferenceable(336) %11)
  br label %13

13:                                               ; preds = %9
  %14 = load i64, ptr %3, align 8, !tbaa !45
  %15 = add i64 %14, 1
  store i64 %15, ptr %3, align 8, !tbaa !45
  br label %5, !llvm.loop !1521

16:                                               ; preds = %8
  ret void
}

; Function Attrs: mustprogress nounwind uwtable
define linkonce_odr hidden void @_ZN5timerC2Ev(ptr noundef nonnull align 8 dereferenceable(8) %0) unnamed_addr #5 comdat align 2 {
  %2 = alloca ptr, align 8
  store ptr %0, ptr %2, align 8, !tbaa !1517
  %3 = load ptr, ptr %2, align 8
  %4 = call i64 @_ZNSt6chrono3_V212system_clock3nowEv() #3
  %5 = getelementptr inbounds nuw %"class.std::chrono::time_point", ptr %3, i32 0, i32 0
  %6 = getelementptr inbounds nuw %"class.std::chrono::duration", ptr %5, i32 0, i32 0
  store i64 %4, ptr %6, align 8
  ret void
}

; Function Attrs: mustprogress nounwind uwtable
define linkonce_odr dso_local noundef i64 @_ZNSt11char_traitsIcE6lengthEPKc(ptr noundef %0) #5 comdat align 2 {
  %2 = alloca ptr, align 8
  store ptr %0, ptr %2, align 8, !tbaa !13
  %3 = load ptr, ptr %2, align 8, !tbaa !13
  %4 = call i64 @strlen(ptr noundef %3) #3
  ret i64 %4
}

; Function Attrs: mustprogress uwtable
define available_externally void @_ZNSt9basic_iosIcSt11char_traitsIcEE8setstateESt12_Ios_Iostate(ptr noundef nonnull align 8 dereferenceable(264) %0, i32 noundef %1) #6 align 2 {
  %3 = alloca ptr, align 8
  %4 = alloca i32, align 4
  store ptr %0, ptr %3, align 8, !tbaa !1463
  store i32 %1, ptr %4, align 4, !tbaa !1465
  %5 = load ptr, ptr %3, align 8
  %6 = call noundef i32 @_ZNKSt9basic_iosIcSt11char_traitsIcEE7rdstateEv(ptr noundef nonnull align 8 dereferenceable(264) %5)
  %7 = load i32, ptr %4, align 4, !tbaa !1465
  %8 = call noundef i32 @_ZStorSt12_Ios_IostateS_(i32 noundef %6, i32 noundef %7)
  call void @_ZNSt9basic_iosIcSt11char_traitsIcEE5clearESt12_Ios_Iostate(ptr noundef nonnull align 8 dereferenceable(264) %5, i32 noundef %8)
  ret void
}

; Function Attrs: mustprogress nounwind uwtable
define linkonce_odr hidden void @_ZNSt15__new_allocatorIN4entt6entityEED2Ev(ptr noundef nonnull align 1 dereferenceable(1) %0) unnamed_addr #5 comdat align 2 {
  %2 = alloca ptr, align 8
  store ptr %0, ptr %2, align 8, !tbaa !494
  ret void
}

; Function Attrs: mustprogress uwtable
define linkonce_odr hidden void @_ZN4entt14basic_registryINS_6entityESaIS1_EEC2ERKS2_(ptr noundef nonnull align 8 dereferenceable(336) %0, ptr noundef nonnull align 1 dereferenceable(1) %1) unnamed_addr #6 comdat align 2 {
  %3 = alloca ptr, align 8
  %4 = alloca ptr, align 8
  store ptr %0, ptr %3, align 8, !tbaa !33
  store ptr %1, ptr %4, align 8, !tbaa !43
  %5 = load ptr, ptr %3, align 8
  %6 = load ptr, ptr %4, align 8, !tbaa !43
  call void @_ZN4entt14basic_registryINS_6entityESaIS1_EEC2EmRKS2_(ptr noundef nonnull align 8 dereferenceable(336) %5, i64 noundef 0, ptr noundef nonnull align 1 dereferenceable(1) %6)
  ret void
}

; Function Attrs: mustprogress nounwind uwtable
define linkonce_odr hidden void @_ZNSaIN4entt6entityEEC2Ev(ptr noundef nonnull align 1 dereferenceable(1) %0) unnamed_addr #5 comdat align 2 {
  %2 = alloca ptr, align 8
  store ptr %0, ptr %2, align 8, !tbaa !43
  %3 = load ptr, ptr %2, align 8
  call void @_ZNSt15__new_allocatorIN4entt6entityEEC2Ev(ptr noundef nonnull align 1 dereferenceable(1) %3) #3
  ret void
}

; Function Attrs: mustprogress uwtable
define internal void @"_Z12generic_withIZN21Benchmark_Create_Test8TestBodyEvE3$_0JEEvT_"(ptr %0) #6 {
  %2 = alloca %class.anon, align 8
  %3 = alloca %struct.timer, align 8
  %4 = getelementptr inbounds nuw %class.anon, ptr %2, i32 0, i32 0
  store ptr %0, ptr %4, align 8
  call void @llvm.lifetime.start.p0(i64 8, ptr %3) #3
  call void @_ZN5timerC2Ev(ptr noundef nonnull align 8 dereferenceable(8) %3)
  call void @"_ZZN21Benchmark_Create_Test8TestBodyEvENK3$_0clEv"(ptr noundef nonnull align 8 dereferenceable(8) %2)
  call void @_ZN5timer7elapsedEv(ptr noundef nonnull align 8 dereferenceable(8) %3)
  call void @llvm.lifetime.end.p0(i64 8, ptr %3) #3
  ret void
}

; Function Attrs: mustprogress uwtable
define available_externally noundef nonnull align 8 dereferenceable(8) ptr @_ZNSolsEPFRSoS_E(ptr noundef nonnull align 8 dereferenceable(8) %0, ptr noundef %1) #6 align 2 {
  %3 = alloca ptr, align 8
  %4 = alloca ptr, align 8
  store ptr %0, ptr %3, align 8, !tbaa !35
  store ptr %1, ptr %4, align 8, !tbaa !24
  %5 = load ptr, ptr %3, align 8
  %6 = load ptr, ptr %4, align 8, !tbaa !24
  %7 = call noundef nonnull align 8 dereferenceable(8) ptr %6(ptr noundef nonnull align 8 dereferenceable(8) %5)
  ret ptr %7
}

; Function Attrs: inlinehint mustprogress uwtable
define available_externally noundef nonnull align 8 dereferenceable(8) ptr @_ZStlsISt11char_traitsIcEERSt13basic_ostreamIcT_ES5_PKc(ptr noundef nonnull align 8 dereferenceable(8) %0, ptr noundef %1) #8 {
  %3 = alloca ptr, align 8
  %4 = alloca ptr, align 8
  store ptr %0, ptr %3, align 8, !tbaa !35
  store ptr %1, ptr %4, align 8, !tbaa !13
  %5 = load ptr, ptr %4, align 8, !tbaa !13
  %6 = icmp ne ptr %5, null
  br i1 %6, label %13, label %7

7:                                                ; preds = %2
  %8 = load ptr, ptr %3, align 8, !tbaa !35
  %9 = load ptr, ptr %8, align 8, !tbaa !27
  %10 = getelementptr i8, ptr %9, i64 -24
  %11 = load i64, ptr %10, align 8
  %12 = getelementptr inbounds i8, ptr %8, i64 %11
  call void @_ZNSt9basic_iosIcSt11char_traitsIcEE8setstateESt12_Ios_Iostate(ptr noundef nonnull align 8 dereferenceable(264) %12, i32 noundef 1)
  br label %19

13:                                               ; preds = %2
  %14 = load ptr, ptr %3, align 8, !tbaa !35
  %15 = load ptr, ptr %4, align 8, !tbaa !13
  %16 = load ptr, ptr %4, align 8, !tbaa !13
  %17 = call noundef i64 @_ZNSt11char_traitsIcE6lengthEPKc(ptr noundef %16)
  %18 = call noundef nonnull align 8 dereferenceable(8) ptr @_ZSt16__ostream_insertIcSt11char_traitsIcEERSt13basic_ostreamIT_T0_ES6_PKS3_l(ptr noundef nonnull align 8 dereferenceable(8) %14, ptr noundef %15, i64 noundef %17)
  br label %19

19:                                               ; preds = %13, %7
  %20 = load ptr, ptr %3, align 8, !tbaa !35
  ret ptr %20
}

; Function Attrs: mustprogress uwtable
define linkonce_odr hidden void @_ZN4entt14basic_registryINS_6entityESaIS1_EEC2Ev(ptr noundef nonnull align 8 dereferenceable(336) %0) unnamed_addr #6 comdat align 2 personality ptr @__gxx_personality_v0 {
  %2 = alloca ptr, align 8
  %3 = alloca %"class.std::allocator.37", align 1
  %4 = alloca ptr, align 8
  %5 = alloca i32, align 4
  store ptr %0, ptr %2, align 8, !tbaa !33
  %6 = load ptr, ptr %2, align 8
  call void @llvm.lifetime.start.p0(i64 1, ptr %3) #3
  call void @_ZNSaIN4entt6entityEEC2Ev(ptr noundef nonnull align 1 dereferenceable(1) %3) #3
  invoke void @_ZN4entt14basic_registryINS_6entityESaIS1_EEC2ERKS2_(ptr noundef nonnull align 8 dereferenceable(336) %6, ptr noundef nonnull align 1 dereferenceable(1) %3)
          to label %7 unwind label %8

7:                                                ; preds = %1
  call void @_ZNSt15__new_allocatorIN4entt6entityEED2Ev(ptr noundef nonnull align 1 dereferenceable(1) %3) #3
  call void @llvm.lifetime.end.p0(i64 1, ptr %3) #3
  ret void

8:                                                ; preds = %1
  %9 = landingpad { ptr, i32 }
          cleanup
  %10 = extractvalue { ptr, i32 } %9, 0
  store ptr %10, ptr %4, align 8
  %11 = extractvalue { ptr, i32 } %9, 1
  store i32 %11, ptr %5, align 4
  call void @_ZNSt15__new_allocatorIN4entt6entityEED2Ev(ptr noundef nonnull align 1 dereferenceable(1) %3) #3
  call void @llvm.lifetime.end.p0(i64 1, ptr %3) #3
  br label %12

12:                                               ; preds = %8
  %13 = load ptr, ptr %4, align 8
  %14 = load i32, ptr %5, align 4
  %15 = insertvalue { ptr, i32 } poison, ptr %13, 0
  %16 = insertvalue { ptr, i32 } %15, i32 %14, 1
  resume { ptr, i32 } %16
}

; Function Attrs: mustprogress uwtable
define hidden void @_ZN21Benchmark_Create_Test8TestBodyEv(ptr noundef nonnull align 8 dereferenceable(16) %0) unnamed_addr #6 align 2 personality ptr @__gxx_personality_v0 {
  %2 = alloca ptr, align 8
  %3 = alloca %"class.entt::basic_registry", align 8
  %4 = alloca ptr, align 8
  %5 = alloca i32, align 4
  %6 = alloca %class.anon, align 8
  store ptr %0, ptr %2, align 8, !tbaa !31
  call void @llvm.lifetime.start.p0(i64 336, ptr %3) #3
  call void @_ZN4entt14basic_registryINS_6entityESaIS1_EEC2Ev(ptr noundef nonnull align 8 dereferenceable(336) %3)
  %7 = invoke noundef nonnull align 8 dereferenceable(8) ptr @_ZStlsISt11char_traitsIcEERSt13basic_ostreamIcT_ES5_PKc(ptr noundef nonnull align 8 dereferenceable(8) @_ZSt4cout, ptr noundef @.str.4)
          to label %8 unwind label %15

8:                                                ; preds = %1
  %9 = invoke noundef nonnull align 8 dereferenceable(8) ptr @_ZNSolsEPFRSoS_E(ptr noundef nonnull align 8 dereferenceable(8) %7, ptr noundef @_ZSt4endlIcSt11char_traitsIcEERSt13basic_ostreamIT_T0_ES6_)
          to label %10 unwind label %15

10:                                               ; preds = %8
  %11 = getelementptr inbounds nuw %class.anon, ptr %6, i32 0, i32 0
  store ptr %3, ptr %11, align 8, !tbaa !33
  %12 = getelementptr inbounds nuw %class.anon, ptr %6, i32 0, i32 0
  %13 = load ptr, ptr %12, align 8
  invoke void @"_Z12generic_withIZN21Benchmark_Create_Test8TestBodyEvE3$_0JEEvT_"(ptr %13)
          to label %14 unwind label %15

14:                                               ; preds = %10
  call void @_ZN4entt14basic_registryINS_6entityESaIS1_EED2Ev(ptr noundef nonnull align 8 dereferenceable(336) %3) #3
  call void @llvm.lifetime.end.p0(i64 336, ptr %3) #3
  ret void

15:                                               ; preds = %10, %8, %1
  %16 = landingpad { ptr, i32 }
          cleanup
  %17 = extractvalue { ptr, i32 } %16, 0
  store ptr %17, ptr %4, align 8
  %18 = extractvalue { ptr, i32 } %16, 1
  store i32 %18, ptr %5, align 4
  call void @_ZN4entt14basic_registryINS_6entityESaIS1_EED2Ev(ptr noundef nonnull align 8 dereferenceable(336) %3) #3
  call void @llvm.lifetime.end.p0(i64 336, ptr %3) #3
  br label %19

19:                                               ; preds = %15
  %20 = load ptr, ptr %4, align 8
  %21 = load i32, ptr %5, align 4
  %22 = insertvalue { ptr, i32 } poison, ptr %20, 0
  %23 = insertvalue { ptr, i32 } %22, i32 %21, 1
  resume { ptr, i32 } %23
}