; Function Attrs: mustprogress uwtable
define hidden void @_ZN21Benchmark_Create_Test8TestBodyEv(ptr nonnull readnone align 8 captures(none) %0) unnamed_addr #4 align 2 personality ptr @__gxx_personality_v0 {
  %2 = alloca %struct.timer, align 8
  %3 = alloca %"class.std::allocator.37", align 1
  %4 = alloca %"class.entt::basic_registry", align 8
  call void @llvm.lifetime.start.p0(i64 336, ptr nonnull %4) #24
  call void @llvm.lifetime.start.p0(i64 1, ptr nonnull %3) #24
  call void @_ZN4entt14basic_registryINS_6entityESaIS1_EEC2EmRKS2_(ptr noundef nonnull align 8 dereferenceable(336) %4, i64 noundef 0, ptr noundef nonnull align 1 dereferenceable(1) %3)
  call void @llvm.lifetime.end.p0(i64 1, ptr nonnull %3) #24
  %5 = invoke noundef nonnull align 8 dereferenceable(8) ptr @_ZSt16__ostream_insertIcSt11char_traitsIcEERSt13basic_ostreamIT_T0_ES6_PKS3_l(ptr noundef nonnull align 8 dereferenceable(8) @_ZSt4cout, ptr noundef nonnull @.str.4, i64 noundef 25)
          to label %_ZStlsISt11char_traitsIcEERSt13basic_ostreamIcT_ES5_PKc.exit unwind label %.loopexit.split-lp

_ZStlsISt11char_traitsIcEERSt13basic_ostreamIcT_ES5_PKc.exit: ; preds = %1
  %6 = load ptr, ptr @_ZSt4cout, align 8, !tbaa !4
  %7 = getelementptr i8, ptr %6, i64 -24
  %8 = load i64, ptr %7, align 8
  %9 = getelementptr inbounds i8, ptr @_ZSt4cout, i64 %8
  %10 = getelementptr inbounds nuw i8, ptr %9, i64 240
  %11 = load ptr, ptr %10, align 8, !tbaa !20
  %.not.i.i.i = icmp eq ptr %11, null
  br i1 %.not.i.i.i, label %12, label %_ZSt13__check_facetISt5ctypeIcEERKT_PS3_.exit.i.i

12:                                               ; preds = %_ZStlsISt11char_traitsIcEERSt13basic_ostreamIcT_ES5_PKc.exit
  invoke void @_ZSt16__throw_bad_castv() #25
          to label %.noexc2 unwind label %.loopexit.split-lp

.noexc2:                                          ; preds = %12
  unreachable

_ZSt13__check_facetISt5ctypeIcEERKT_PS3_.exit.i.i: ; preds = %_ZStlsISt11char_traitsIcEERSt13basic_ostreamIcT_ES5_PKc.exit
  %13 = getelementptr inbounds nuw i8, ptr %11, i64 56
  %14 = load i8, ptr %13, align 8, !tbaa !28
  %.not.i1.i.i = icmp eq i8 %14, 0
  br i1 %.not.i1.i.i, label %18, label %15

15:                                               ; preds = %_ZSt13__check_facetISt5ctypeIcEERKT_PS3_.exit.i.i
  %16 = getelementptr inbounds nuw i8, ptr %11, i64 67
  %17 = load i8, ptr %16, align 1, !tbaa !34
  br label %_ZNKSt9basic_iosIcSt11char_traitsIcEE5widenEc.exit.i

18:                                               ; preds = %_ZSt13__check_facetISt5ctypeIcEERKT_PS3_.exit.i.i
  invoke void @_ZNKSt5ctypeIcE13_M_widen_initEv(ptr noundef nonnull align 8 dereferenceable(570) %11)
          to label %.noexc3 unwind label %.loopexit.split-lp

.noexc3:                                          ; preds = %18
  %19 = load ptr, ptr %11, align 8, !tbaa !4
  %20 = getelementptr inbounds nuw i8, ptr %19, i64 48
  %21 = load ptr, ptr %20, align 8
  %22 = invoke noundef signext i8 %21(ptr noundef nonnull align 8 dereferenceable(570) %11, i8 noundef signext 10)
          to label %_ZNKSt9basic_iosIcSt11char_traitsIcEE5widenEc.exit.i unwind label %.loopexit.split-lp

_ZNKSt9basic_iosIcSt11char_traitsIcEE5widenEc.exit.i: ; preds = %.noexc3, %15
  %.0.i.i.i = phi i8 [ %17, %15 ], [ %22, %.noexc3 ]
  %23 = invoke noundef nonnull align 8 dereferenceable(8) ptr @_ZNSo3putEc(ptr noundef nonnull align 8 dereferenceable(8) @_ZSt4cout, i8 noundef signext %.0.i.i.i)
          to label %.noexc5 unwind label %.loopexit.split-lp

.noexc5:                                          ; preds = %_ZNKSt9basic_iosIcSt11char_traitsIcEE5widenEc.exit.i
  %24 = invoke noundef nonnull align 8 dereferenceable(8) ptr @_ZNSo5flushEv(ptr noundef nonnull align 8 dereferenceable(8) %23)
          to label %_ZNSolsEPFRSoS_E.exit unwind label %.loopexit.split-lp

_ZNSolsEPFRSoS_E.exit:                            ; preds = %.noexc5
  call void @llvm.lifetime.start.p0(i64 8, ptr nonnull %2) #24
  %25 = call i64 @_ZNSt6chrono3_V212system_clock3nowEv() #24
  store i64 %25, ptr %2, align 8
  %26 = getelementptr inbounds nuw i8, ptr %4, i64 168
  br label %27

27:                                               ; preds = %.noexc, %_ZNSolsEPFRSoS_E.exit
  %.01.i.i = phi i64 [ 0, %_ZNSolsEPFRSoS_E.exit ], [ %29, %.noexc ]
  %28 = invoke noundef i32 @_ZN4entt16basic_sigh_mixinINS_13basic_storageINS_6entityES2_SaIS2_EvEENS_14basic_registryIS2_S3_EEE8generateEv(ptr noundef nonnull align 8 dereferenceable(168) %26)
          to label %.noexc unwind label %.loopexit

.noexc:                                           ; preds = %27
  %29 = add nuw nsw i64 %.01.i.i, 1
  %exitcond.not.i.i = icmp eq i64 %29, 1000000
  br i1 %exitcond.not.i.i, label %"_ZZN21Benchmark_Create_Test8TestBodyEvENK3$_0clEv.exit.i", label %27, !llvm.loop !35

"_ZZN21Benchmark_Create_Test8TestBodyEvENK3$_0clEv.exit.i": ; preds = %.noexc
  invoke void @_ZN5timer7elapsedEv(ptr noundef nonnull align 8 dereferenceable(8) %2)
          to label %30 unwind label %.loopexit.split-lp

30:                                               ; preds = %"_ZZN21Benchmark_Create_Test8TestBodyEvENK3$_0clEv.exit.i"
  call void @llvm.lifetime.end.p0(i64 8, ptr nonnull %2) #24
  call void @_ZN4entt14basic_registryINS_6entityESaIS1_EED2Ev(ptr noundef nonnull align 8 dereferenceable(336) %4) #24
  call void @llvm.lifetime.end.p0(i64 336, ptr nonnull %4) #24
  ret void

.loopexit:                                        ; preds = %27
  %lpad.loopexit = landingpad { ptr, i32 }
          cleanup
  br label %31

.loopexit.split-lp:                               ; preds = %1, %"_ZZN21Benchmark_Create_Test8TestBodyEvENK3$_0clEv.exit.i", %12, %18, %.noexc3, %_ZNKSt9basic_iosIcSt11char_traitsIcEE5widenEc.exit.i, %.noexc5
  %lpad.loopexit.split-lp = landingpad { ptr, i32 }
          cleanup
  br label %31

31:                                               ; preds = %.loopexit.split-lp, %.loopexit
  %lpad.phi = phi { ptr, i32 } [ %lpad.loopexit, %.loopexit ], [ %lpad.loopexit.split-lp, %.loopexit.split-lp ]
  call void @_ZN4entt14basic_registryINS_6entityESaIS1_EED2Ev(ptr noundef nonnull align 8 dereferenceable(336) %4) #24
  call void @llvm.lifetime.end.p0(i64 336, ptr nonnull %4) #24
  resume { ptr, i32 } %lpad.phi
}